; Function Attrs: mustprogress nofree norecurse nosync nounwind willreturn memory(argmem: readwrite) uwtable
define void @_ZN3gmx10EnergyData7Element32registerTrajectoryWriterCallbackENS_15TrajectoryEventE(ptr dead_on_unwind noalias writable writeonly sret(%"class.std::optional.27") align 8 captures(none) initializes((32, 33)) %0, ptr noundef nonnull align 8 dereferenceable(120) %1, i32 noundef %2) unnamed_addr #4 align 2 personality ptr @__gxx_personality_v0 {
  %4 = icmp eq i32 %2, 1
  br i1 %4, label %5, label %14

5:                                                ; preds = %3
  %6 = getelementptr inbounds nuw i8, ptr %1, i64 80
  %7 = load i8, ptr %6, align 8, !tbaa !4, !range !21, !noundef !22
  %8 = trunc nuw i8 %7 to i1
  br i1 %8, label %9, label %14

9:                                                ; preds = %5
  %10 = ptrtoint ptr %1 to i64
  %11 = getelementptr inbounds nuw i8, ptr %0, i64 16
  %12 = getelementptr inbounds nuw i8, ptr %0, i64 24
  %13 = getelementptr inbounds nuw i8, ptr %0, i64 8
  store i64 0, ptr %13, align 8
  store i64 %10, ptr %0, align 8, !tbaa !27
  store ptr @"_ZNSt17_Function_handlerIFvP10gmx_mdoutfldbbEZN3gmx10EnergyData7Element32registerTrajectoryWriterCallbackENS3_15TrajectoryEventEE3$_0E9_M_invokeERKSt9_Any_dataOS1_OlOdObSF_", ptr %12, align 8, !tbaa !121
  store ptr @"_ZNSt17_Function_handlerIFvP10gmx_mdoutfldbbEZN3gmx10EnergyData7Element32registerTrajectoryWriterCallbackENS3_15TrajectoryEventEE3$_0E10_M_managerERSt9_Any_dataRKS9_St18_Manager_operation", ptr %11, align 8, !tbaa !37
  br label %14

14:                                               ; preds = %3, %5, %9
  %.sink = phi i8 [ 1, %9 ], [ 0, %5 ], [ 0, %3 ]
  %15 = getelementptr inbounds nuw i8, ptr %0, i64 32
  store i8 %.sink, ptr %15, align 8, !tbaa !123
  ret void
}